target datalayout = "e-m:e-p270:32:32-p271:32:32-p272:64:64-i64:64-i128:128-f80:128-n8:16:32:64-S128"
target triple = "x86_64-pc-linux-gnu"

%struct._zend_refcounted_h = type { i32, %union.anon }
%union.anon = type { i32 }
%struct._zval_struct = type { %union._zend_value, %union.anon.0, %union.anon.3 }
%union._zend_value = type { i64 }
%union.anon.0 = type { i32 }
%union.anon.3 = type { i32 }
%struct._zend_generator = type { %struct._zend_object, ptr, ptr, %struct._zval_struct, %struct._zval_struct, %struct._zval_struct, ptr, i64, %struct._zval_struct, %struct._zend_generator_node, %struct._zend_execute_data, ptr, i8 }
%struct._zend_object = type { %struct._zend_refcounted_h, i32, i32, ptr, ptr, ptr, [1 x %struct._zval_struct] }
%struct._zend_generator_node = type { ptr, i32, %union.anon.4, %union.anon.5 }
%union.anon.4 = type { ptr }
%union.anon.5 = type { ptr }
%struct._zend_execute_data = type { ptr, ptr, ptr, ptr, %struct._zval_struct, ptr, ptr, ptr, ptr }
%struct._zend_refcounted = type { %struct._zend_refcounted_h }
%struct.anon.1 = type { i8, i8, %union.anon.2 }
%union.anon.2 = type { i16 }
%struct._zend_object_iterator = type { %struct._zend_object, %struct._zval_struct, ptr, i64 }
%struct._zend_reference = type { %struct._zend_refcounted_h, %struct._zval_struct, %union.zend_property_info_source_list }
%union.zend_property_info_source_list = type { ptr }

; Function Attrs: alwaysinline nounwind uwtable
define internal ptr @clear_link_to_leaf(ptr noundef %0) #2 {
  %2 = alloca ptr, align 8
  %3 = alloca ptr, align 8
  %4 = alloca ptr, align 8
  %5 = alloca i32, align 4
  store ptr %0, ptr %3, align 8, !tbaa !4
  %6 = load ptr, ptr %3, align 8, !tbaa !4
  %7 = getelementptr inbounds nuw %struct._zend_generator, ptr %6, i32 0, i32 9
  %8 = getelementptr inbounds nuw %struct._zend_generator_node, ptr %7, i32 0, i32 0
  %9 = load ptr, ptr %8, align 8, !tbaa !73
  %10 = icmp ne ptr %9, null
  %11 = xor i1 %10, true
  call void @llvm.assume(i1 %11)
  call void @llvm.lifetime.start.p0(i64 8, ptr %4) #11
  %12 = load ptr, ptr %3, align 8, !tbaa !4
  %13 = getelementptr inbounds nuw %struct._zend_generator, ptr %12, i32 0, i32 9
  %14 = getelementptr inbounds nuw %struct._zend_generator_node, ptr %13, i32 0, i32 3
  %15 = load ptr, ptr %14, align 8, !tbaa !26
  store ptr %15, ptr %4, align 8, !tbaa !4
  %16 = load ptr, ptr %4, align 8, !tbaa !4
  %17 = icmp ne ptr %16, null
  br i1 %17, label %18, label %26

18:                                               ; preds = %1
  %19 = load ptr, ptr %4, align 8, !tbaa !4
  %20 = getelementptr inbounds nuw %struct._zend_generator, ptr %19, i32 0, i32 9
  %21 = getelementptr inbounds nuw %struct._zend_generator_node, ptr %20, i32 0, i32 3
  store ptr null, ptr %21, align 8, !tbaa !26
  %22 = load ptr, ptr %3, align 8, !tbaa !4
  %23 = getelementptr inbounds nuw %struct._zend_generator, ptr %22, i32 0, i32 9
  %24 = getelementptr inbounds nuw %struct._zend_generator_node, ptr %23, i32 0, i32 3
  store ptr null, ptr %24, align 8, !tbaa !26
  %25 = load ptr, ptr %4, align 8, !tbaa !4
  store ptr %25, ptr %2, align 8
  store i32 1, ptr %5, align 4
  br label %27

26:                                               ; preds = %1
  store ptr null, ptr %2, align 8
  store i32 1, ptr %5, align 4
  br label %27

27:                                               ; preds = %26, %18
  call void @llvm.lifetime.end.p0(i64 8, ptr %4) #11
  %28 = load ptr, ptr %2, align 8
  ret ptr %28
}

; Function Attrs: alwaysinline nounwind uwtable
define internal i32 @zend_gc_addref(ptr noundef %0) #2 {
  %2 = alloca ptr, align 8
  store ptr %0, ptr %2, align 8, !tbaa !113
  br label %3

3:                                                ; preds = %1
  br label %4

4:                                                ; preds = %3
  %5 = load ptr, ptr %2, align 8, !tbaa !113
  %6 = getelementptr inbounds nuw %struct._zend_refcounted_h, ptr %5, i32 0, i32 0
  %7 = load i32, ptr %6, align 4, !tbaa !115
  %8 = add i32 %7, 1
  store i32 %8, ptr %6, align 4, !tbaa !115
  ret i32 %8
}

; Function Attrs: nounwind uwtable
define dso_local ptr @zend_generator_update_root(ptr noundef %0) #0 {
  %2 = alloca ptr, align 8
  %3 = alloca ptr, align 8
  store ptr %0, ptr %2, align 8, !tbaa !4
  call void @llvm.lifetime.start.p0(i64 8, ptr %3) #11
  %4 = load ptr, ptr %2, align 8, !tbaa !4
  %5 = getelementptr inbounds nuw %struct._zend_generator, ptr %4, i32 0, i32 9
  %6 = getelementptr inbounds nuw %struct._zend_generator_node, ptr %5, i32 0, i32 0
  %7 = load ptr, ptr %6, align 8, !tbaa !73
  store ptr %7, ptr %3, align 8, !tbaa !4
  br label %8

8:                                                ; preds = %14, %1
  %9 = load ptr, ptr %3, align 8, !tbaa !4
  %10 = getelementptr inbounds nuw %struct._zend_generator, ptr %9, i32 0, i32 9
  %11 = getelementptr inbounds nuw %struct._zend_generator_node, ptr %10, i32 0, i32 0
  %12 = load ptr, ptr %11, align 8, !tbaa !73
  %13 = icmp ne ptr %12, null
  br i1 %13, label %14, label %19

14:                                               ; preds = %8
  %15 = load ptr, ptr %3, align 8, !tbaa !4
  %16 = getelementptr inbounds nuw %struct._zend_generator, ptr %15, i32 0, i32 9
  %17 = getelementptr inbounds nuw %struct._zend_generator_node, ptr %16, i32 0, i32 0
  %18 = load ptr, ptr %17, align 8, !tbaa !73
  store ptr %18, ptr %3, align 8, !tbaa !4
  br label %8

19:                                               ; preds = %8
  %20 = load ptr, ptr %3, align 8, !tbaa !4
  %21 = call ptr @clear_link_to_leaf(ptr noundef %20)
  %22 = load ptr, ptr %2, align 8, !tbaa !4
  %23 = load ptr, ptr %3, align 8, !tbaa !4
  %24 = getelementptr inbounds nuw %struct._zend_generator, ptr %23, i32 0, i32 9
  %25 = getelementptr inbounds nuw %struct._zend_generator_node, ptr %24, i32 0, i32 3
  store ptr %22, ptr %25, align 8, !tbaa !26
  %26 = load ptr, ptr %3, align 8, !tbaa !4
  %27 = load ptr, ptr %2, align 8, !tbaa !4
  %28 = getelementptr inbounds nuw %struct._zend_generator, ptr %27, i32 0, i32 9
  %29 = getelementptr inbounds nuw %struct._zend_generator_node, ptr %28, i32 0, i32 3
  store ptr %26, ptr %29, align 8, !tbaa !26
  %30 = load ptr, ptr %3, align 8, !tbaa !4
  call void @llvm.lifetime.end.p0(i64 8, ptr %3) #11
  ret ptr %30
}

; Function Attrs: alwaysinline nounwind uwtable
define internal i32 @zval_addref_p(ptr noundef %0) #2 {
  %2 = alloca ptr, align 8
  store ptr %0, ptr %2, align 8, !tbaa !36
  %3 = load ptr, ptr %2, align 8, !tbaa !36
  %4 = getelementptr inbounds nuw %struct._zval_struct, ptr %3, i32 0, i32 1
  %5 = getelementptr inbounds nuw %struct.anon.1, ptr %4, i32 0, i32 1
  %6 = load i8, ptr %5, align 1, !tbaa !26
  %7 = zext i8 %6 to i32
  %8 = icmp ne i32 %7, 0
  call void @llvm.assume(i1 %8)
  %9 = load ptr, ptr %2, align 8, !tbaa !36
  %10 = getelementptr inbounds nuw %struct._zval_struct, ptr %9, i32 0, i32 0
  %11 = load ptr, ptr %10, align 8, !tbaa !26
  %12 = getelementptr inbounds nuw %struct._zend_refcounted, ptr %11, i32 0, i32 0
  %13 = call i32 @zend_gc_addref(ptr noundef %12)
  ret i32 %13
}

; Function Attrs: alwaysinline nounwind uwtable
define internal zeroext i8 @zval_get_type(ptr noundef %0) #2 {
  %2 = alloca ptr, align 8
  store ptr %0, ptr %2, align 8, !tbaa !36
  %3 = load ptr, ptr %2, align 8, !tbaa !36
  %4 = getelementptr inbounds nuw %struct._zval_struct, ptr %3, i32 0, i32 1
  %5 = getelementptr inbounds nuw %struct.anon.1, ptr %4, i32 0, i32 0
  %6 = load i8, ptr %5, align 8, !tbaa !26
  ret i8 %6
}

; Function Attrs: alwaysinline nounwind uwtable
define internal ptr @zend_generator_get_current(ptr noundef %0) #2 {
  %2 = alloca ptr, align 8
  %3 = alloca ptr, align 8
  %4 = alloca ptr, align 8
  %5 = alloca i32, align 4
  store ptr %0, ptr %3, align 8, !tbaa !4
  %6 = load ptr, ptr %3, align 8, !tbaa !4
  %7 = getelementptr inbounds nuw %struct._zend_generator, ptr %6, i32 0, i32 9
  %8 = getelementptr inbounds nuw %struct._zend_generator_node, ptr %7, i32 0, i32 0
  %9 = load ptr, ptr %8, align 8, !tbaa !73
  %10 = icmp eq ptr %9, null
  %11 = xor i1 %10, true
  %12 = xor i1 %11, true
  %13 = zext i1 %12 to i32
  %14 = sext i32 %13 to i64
  %15 = call i64 @llvm.expect.i64(i64 %14, i64 1)
  %16 = icmp ne i64 %15, 0
  br i1 %16, label %17, label %19

17:                                               ; preds = %1
  %18 = load ptr, ptr %3, align 8, !tbaa !4
  store ptr %18, ptr %2, align 8
  br label %46

19:                                               ; preds = %1
  call void @llvm.lifetime.start.p0(i64 8, ptr %4) #11
  %20 = load ptr, ptr %3, align 8, !tbaa !4
  %21 = getelementptr inbounds nuw %struct._zend_generator, ptr %20, i32 0, i32 9
  %22 = getelementptr inbounds nuw %struct._zend_generator_node, ptr %21, i32 0, i32 3
  %23 = load ptr, ptr %22, align 8, !tbaa !26
  store ptr %23, ptr %4, align 8, !tbaa !4
  %24 = load ptr, ptr %4, align 8, !tbaa !4
  %25 = icmp ne ptr %24, null
  br i1 %25, label %29, label %26

26:                                               ; preds = %19
  %27 = load ptr, ptr %3, align 8, !tbaa !4
  %28 = call ptr @zend_generator_update_root(ptr noundef %27)
  store ptr %28, ptr %4, align 8, !tbaa !4
  br label %29

29:                                               ; preds = %26, %19
  %30 = load ptr, ptr %4, align 8, !tbaa !4
  %31 = getelementptr inbounds nuw %struct._zend_generator, ptr %30, i32 0, i32 1
  %32 = load ptr, ptr %31, align 8, !tbaa !30
  %33 = icmp ne ptr %32, null
  %34 = xor i1 %33, true
  %35 = xor i1 %34, true
  %36 = zext i1 %35 to i32
  %37 = sext i32 %36 to i64
  %38 = call i64 @llvm.expect.i64(i64 %37, i64 1)
  %39 = icmp ne i64 %38, 0
  br i1 %39, label %40, label %42

40:                                               ; preds = %29
  %41 = load ptr, ptr %4, align 8, !tbaa !4
  store ptr %41, ptr %2, align 8
  store i32 1, ptr %5, align 4
  br label %45

42:                                               ; preds = %29
  %43 = load ptr, ptr %3, align 8, !tbaa !4
  %44 = call ptr @zend_generator_update_current(ptr noundef %43)
  store ptr %44, ptr %2, align 8
  store i32 1, ptr %5, align 4
  br label %45

45:                                               ; preds = %42, %40
  call void @llvm.lifetime.end.p0(i64 8, ptr %4) #11
  br label %46

46:                                               ; preds = %45, %17
  %47 = load ptr, ptr %2, align 8
  ret ptr %47
}

; Function Attrs: inlinehint nounwind uwtable
define internal void @zend_generator_ensure_initialized(ptr noundef %0) #9 {
  %2 = alloca ptr, align 8
  store ptr %0, ptr %2, align 8, !tbaa !4
  %3 = load ptr, ptr %2, align 8, !tbaa !4
  %4 = getelementptr inbounds nuw %struct._zend_generator, ptr %3, i32 0, i32 3
  %5 = call zeroext i8 @zval_get_type(ptr noundef %4)
  %6 = zext i8 %5 to i32
  %7 = icmp eq i32 %6, 0
  %8 = xor i1 %7, true
  %9 = xor i1 %8, true
  %10 = zext i1 %9 to i32
  %11 = sext i32 %10 to i64
  %12 = call i64 @llvm.expect.i64(i64 %11, i64 0)
  %13 = icmp ne i64 %12, 0
  br i1 %13, label %14, label %45

14:                                               ; preds = %1
  %15 = load ptr, ptr %2, align 8, !tbaa !4
  %16 = getelementptr inbounds nuw %struct._zend_generator, ptr %15, i32 0, i32 1
  %17 = load ptr, ptr %16, align 8, !tbaa !30
  %18 = icmp ne ptr %17, null
  %19 = xor i1 %18, true
  %20 = xor i1 %19, true
  %21 = zext i1 %20 to i32
  %22 = sext i32 %21 to i64
  %23 = call i64 @llvm.expect.i64(i64 %22, i64 1)
  %24 = icmp ne i64 %23, 0
  br i1 %24, label %25, label %45

25:                                               ; preds = %14
  %26 = load ptr, ptr %2, align 8, !tbaa !4
  %27 = getelementptr inbounds nuw %struct._zend_generator, ptr %26, i32 0, i32 9
  %28 = getelementptr inbounds nuw %struct._zend_generator_node, ptr %27, i32 0, i32 0
  %29 = load ptr, ptr %28, align 8, !tbaa !73
  %30 = icmp eq ptr %29, null
  %31 = xor i1 %30, true
  %32 = xor i1 %31, true
  %33 = zext i1 %32 to i32
  %34 = sext i32 %33 to i64
  %35 = call i64 @llvm.expect.i64(i64 %34, i64 1)
  %36 = icmp ne i64 %35, 0
  br i1 %36, label %37, label %45

37:                                               ; preds = %25
  %38 = load ptr, ptr %2, align 8, !tbaa !4
  call void @zend_generator_resume(ptr noundef %38)
  %39 = load ptr, ptr %2, align 8, !tbaa !4
  %40 = getelementptr inbounds nuw %struct._zend_generator, ptr %39, i32 0, i32 12
  %41 = load i8, ptr %40, align 8, !tbaa !81
  %42 = zext i8 %41 to i32
  %43 = or i32 %42, 4
  %44 = trunc i32 %43 to i8
  store i8 %44, ptr %40, align 8, !tbaa !81
  br label %45

45:                                               ; preds = %37, %25, %14, %1
  ret void
}

; Function Attrs: nounwind uwtable
define internal void @zend_generator_iterator_get_key(ptr noundef %0, ptr noundef %1) #0 {
  %3 = alloca ptr, align 8
  %4 = alloca ptr, align 8
  %5 = alloca ptr, align 8
  %6 = alloca ptr, align 8
  %7 = alloca ptr, align 8
  %8 = alloca ptr, align 8
  %9 = alloca ptr, align 8
  %10 = alloca ptr, align 8
  %11 = alloca ptr, align 8
  %12 = alloca i32, align 4
  store ptr %0, ptr %3, align 8, !tbaa !122
  store ptr %1, ptr %4, align 8, !tbaa !36
  call void @llvm.lifetime.start.p0(i64 8, ptr %5) #11
  %13 = load ptr, ptr %3, align 8, !tbaa !122
  %14 = getelementptr inbounds nuw %struct._zend_object_iterator, ptr %13, i32 0, i32 1
  %15 = getelementptr inbounds nuw %struct._zval_struct, ptr %14, i32 0, i32 0
  %16 = load ptr, ptr %15, align 8, !tbaa !26
  store ptr %16, ptr %5, align 8, !tbaa !4
  call void @llvm.lifetime.start.p0(i64 8, ptr %6) #11
  %17 = load ptr, ptr %5, align 8, !tbaa !4
  call void @zend_generator_ensure_initialized(ptr noundef %17)
  %18 = load ptr, ptr %5, align 8, !tbaa !4
  %19 = call ptr @zend_generator_get_current(ptr noundef %18)
  store ptr %19, ptr %6, align 8, !tbaa !4
  %20 = load ptr, ptr %6, align 8, !tbaa !4
  %21 = getelementptr inbounds nuw %struct._zend_generator, ptr %20, i32 0, i32 4
  %22 = call zeroext i8 @zval_get_type(ptr noundef %21)
  %23 = zext i8 %22 to i32
  %24 = icmp ne i32 %23, 0
  %25 = xor i1 %24, true
  %26 = xor i1 %25, true
  %27 = zext i1 %26 to i32
  %28 = sext i32 %27 to i64
  %29 = call i64 @llvm.expect.i64(i64 %28, i64 1)
  %30 = icmp ne i64 %29, 0
  br i1 %30, label %31, label %94

31:                                               ; preds = %2
  call void @llvm.lifetime.start.p0(i64 8, ptr %7) #11
  %32 = load ptr, ptr %6, align 8, !tbaa !4
  %33 = getelementptr inbounds nuw %struct._zend_generator, ptr %32, i32 0, i32 4
  store ptr %33, ptr %7, align 8, !tbaa !36
  br label %34

34:                                               ; preds = %31
  call void @llvm.lifetime.start.p0(i64 8, ptr %8) #11
  %35 = load ptr, ptr %7, align 8, !tbaa !36
  store ptr %35, ptr %8, align 8, !tbaa !36
  %36 = load ptr, ptr %8, align 8, !tbaa !36
  %37 = getelementptr inbounds nuw %struct._zval_struct, ptr %36, i32 0, i32 1
  %38 = load i32, ptr %37, align 8, !tbaa !26
  %39 = and i32 %38, 65280
  %40 = icmp ne i32 %39, 0
  br i1 %40, label %41, label %71

41:                                               ; preds = %34
  %42 = load ptr, ptr %8, align 8, !tbaa !36
  %43 = getelementptr inbounds nuw %struct._zval_struct, ptr %42, i32 0, i32 1
  %44 = load i32, ptr %43, align 8, !tbaa !26
  %45 = and i32 %44, 255
  %46 = icmp eq i32 %45, 10
  %47 = xor i1 %46, true
  %48 = xor i1 %47, true
  %49 = zext i1 %48 to i32
  %50 = sext i32 %49 to i64
  %51 = call i64 @llvm.expect.i64(i64 %50, i64 0)
  %52 = icmp ne i64 %51, 0
  br i1 %52, label %53, label %67

53:                                               ; preds = %41
  %54 = load ptr, ptr %8, align 8, !tbaa !36
  %55 = getelementptr inbounds nuw %struct._zval_struct, ptr %54, i32 0, i32 0
  %56 = load ptr, ptr %55, align 8, !tbaa !26
  %57 = getelementptr inbounds nuw %struct._zend_reference, ptr %56, i32 0, i32 1
  store ptr %57, ptr %8, align 8, !tbaa !36
  %58 = load ptr, ptr %8, align 8, !tbaa !36
  %59 = getelementptr inbounds nuw %struct._zval_struct, ptr %58, i32 0, i32 1
  %60 = load i32, ptr %59, align 8, !tbaa !26
  %61 = and i32 %60, 65280
  %62 = icmp ne i32 %61, 0
  br i1 %62, label %63, label %66

63:                                               ; preds = %53
  %64 = load ptr, ptr %8, align 8, !tbaa !36
  %65 = call i32 @zval_addref_p(ptr noundef %64)
  br label %66

66:                                               ; preds = %63, %53
  br label %70

67:                                               ; preds = %41
  %68 = load ptr, ptr %8, align 8, !tbaa !36
  %69 = call i32 @zval_addref_p(ptr noundef %68)
  br label %70

70:                                               ; preds = %67, %66
  br label %71

71:                                               ; preds = %70, %34
  br label %72

72:                                               ; preds = %71
  call void @llvm.lifetime.start.p0(i64 8, ptr %9) #11
  %73 = load ptr, ptr %4, align 8, !tbaa !36
  store ptr %73, ptr %9, align 8, !tbaa !36
  call void @llvm.lifetime.start.p0(i64 8, ptr %10) #11
  %74 = load ptr, ptr %8, align 8, !tbaa !36
  store ptr %74, ptr %10, align 8, !tbaa !36
  call void @llvm.lifetime.start.p0(i64 8, ptr %11) #11
  %75 = load ptr, ptr %10, align 8, !tbaa !36
  %76 = getelementptr inbounds nuw %struct._zval_struct, ptr %75, i32 0, i32 0
  %77 = load ptr, ptr %76, align 8, !tbaa !26
  store ptr %77, ptr %11, align 8, !tbaa !77
  call void @llvm.lifetime.start.p0(i64 4, ptr %12) #11
  %78 = load ptr, ptr %10, align 8, !tbaa !36
  %79 = getelementptr inbounds nuw %struct._zval_struct, ptr %78, i32 0, i32 1
  %80 = load i32, ptr %79, align 8, !tbaa !26
  store i32 %80, ptr %12, align 4, !tbaa !32
  br label %81

81:                                               ; preds = %72
  %82 = load ptr, ptr %11, align 8, !tbaa !77
  %83 = load ptr, ptr %9, align 8, !tbaa !36
  %84 = getelementptr inbounds nuw %struct._zval_struct, ptr %83, i32 0, i32 0
  store ptr %82, ptr %84, align 8, !tbaa !26
  %85 = load i32, ptr %12, align 4, !tbaa !32
  %86 = load ptr, ptr %9, align 8, !tbaa !36
  %87 = getelementptr inbounds nuw %struct._zval_struct, ptr %86, i32 0, i32 1
  store i32 %85, ptr %87, align 8, !tbaa !26
  br label %88

88:                                               ; preds = %81
  br label %89

89:                                               ; preds = %88
  call void @llvm.lifetime.end.p0(i64 4, ptr %12) #11
  call void @llvm.lifetime.end.p0(i64 8, ptr %11) #11
  call void @llvm.lifetime.end.p0(i64 8, ptr %10) #11
  call void @llvm.lifetime.end.p0(i64 8, ptr %9) #11
  br label %90

90:                                               ; preds = %89
  br label %91

91:                                               ; preds = %90
  call void @llvm.lifetime.end.p0(i64 8, ptr %8) #11
  br label %92

92:                                               ; preds = %91
  br label %93

93:                                               ; preds = %92
  call void @llvm.lifetime.end.p0(i64 8, ptr %7) #11
  br label %100

94:                                               ; preds = %2
  br label %95

95:                                               ; preds = %94
  %96 = load ptr, ptr %4, align 8, !tbaa !36
  %97 = getelementptr inbounds nuw %struct._zval_struct, ptr %96, i32 0, i32 1
  store i32 1, ptr %97, align 8, !tbaa !26
  br label %98

98:                                               ; preds = %95
  br label %99

99:                                               ; preds = %98
  br label %100

100:                                              ; preds = %99, %93
  call void @llvm.lifetime.end.p0(i64 8, ptr %6) #11
  call void @llvm.lifetime.end.p0(i64 8, ptr %5) #11
  ret void
}