; Function Attrs: nounwind uwtable
define internal void @zend_generator_iterator_get_key(ptr noundef readonly captures(none) %0, ptr noundef writeonly captures(none) %1) #0 {
  %3 = getelementptr inbounds nuw i8, ptr %0, i64 56
  %4 = load ptr, ptr %3, align 8, !tbaa !24
  %5 = getelementptr inbounds nuw i8, ptr %4, i64 80
  %6 = load i8, ptr %5, align 8, !tbaa !24
  %7 = icmp eq i8 %6, 0
  br i1 %7, label %8, label %zend_generator_ensure_initialized.exit, !prof !26

8:                                                ; preds = %2
  %9 = getelementptr inbounds nuw i8, ptr %4, i64 56
  %10 = load ptr, ptr %9, align 8, !tbaa !56
  %.not.i22 = icmp eq ptr %10, null
  br i1 %.not.i22, label %zend_generator_ensure_initialized.exit, label %11, !prof !26

11:                                               ; preds = %8
  %12 = getelementptr inbounds nuw i8, ptr %4, i64 152
  %13 = load ptr, ptr %12, align 8, !tbaa !94
  %14 = icmp eq ptr %13, null
  br i1 %14, label %15, label %zend_generator_ensure_initialized.exit, !prof !58

15:                                               ; preds = %11
  tail call void @zend_generator_resume(ptr noundef nonnull %4)
  %16 = getelementptr inbounds nuw i8, ptr %4, i64 272
  %17 = load i8, ptr %16, align 8, !tbaa !99
  %18 = or i8 %17, 4
  store i8 %18, ptr %16, align 8, !tbaa !99
  br label %zend_generator_ensure_initialized.exit

zend_generator_ensure_initialized.exit:           ; preds = %2, %8, %11, %15
  %19 = getelementptr inbounds nuw i8, ptr %4, i64 152
  %20 = load ptr, ptr %19, align 8, !tbaa !94
  %21 = icmp eq ptr %20, null
  br i1 %21, label %zend_generator_get_current.exit, label %22, !prof !58

22:                                               ; preds = %zend_generator_ensure_initialized.exit
  %23 = getelementptr inbounds nuw i8, ptr %4, i64 176
  %24 = load ptr, ptr %23, align 8, !tbaa !24
  %.not.i = icmp eq ptr %24, null
  br i1 %.not.i, label %.preheader, label %32

.preheader:                                       ; preds = %22, %.preheader
  %.0.i23 = phi ptr [ %26, %.preheader ], [ %20, %22 ]
  %25 = getelementptr inbounds nuw i8, ptr %.0.i23, i64 152
  %26 = load ptr, ptr %25, align 8, !tbaa !94
  %.not.i24 = icmp eq ptr %26, null
  br i1 %.not.i24, label %27, label %.preheader

27:                                               ; preds = %.preheader
  %28 = getelementptr inbounds nuw i8, ptr %.0.i23, i64 176
  %29 = load ptr, ptr %28, align 8, !tbaa !24
  %.not8.i.i = icmp eq ptr %29, null
  br i1 %.not8.i.i, label %zend_generator_update_root.exit, label %30

30:                                               ; preds = %27
  %31 = getelementptr inbounds nuw i8, ptr %29, i64 176
  store ptr null, ptr %31, align 8, !tbaa !24
  store ptr null, ptr %28, align 8, !tbaa !24
  br label %zend_generator_update_root.exit

zend_generator_update_root.exit:                  ; preds = %27, %30
  store ptr %4, ptr %28, align 8, !tbaa !24
  store ptr %.0.i23, ptr %23, align 8, !tbaa !24
  br label %32

32:                                               ; preds = %zend_generator_update_root.exit, %22
  %.0.i = phi ptr [ %24, %22 ], [ %.0.i23, %zend_generator_update_root.exit ]
  %33 = getelementptr inbounds nuw i8, ptr %.0.i, i64 56
  %34 = load ptr, ptr %33, align 8, !tbaa !56
  %.not11.i = icmp eq ptr %34, null
  br i1 %.not11.i, label %35, label %zend_generator_get_current.exit, !prof !26

35:                                               ; preds = %32
  %36 = tail call ptr @zend_generator_update_current(ptr noundef nonnull %4)
  br label %zend_generator_get_current.exit

zend_generator_get_current.exit:                  ; preds = %zend_generator_ensure_initialized.exit, %32, %35
  %.09.i = phi ptr [ %4, %zend_generator_ensure_initialized.exit ], [ %36, %35 ], [ %.0.i, %32 ]
  %37 = getelementptr inbounds nuw i8, ptr %.09.i, i64 88
  %38 = getelementptr inbounds nuw i8, ptr %.09.i, i64 96
  %39 = load i8, ptr %38, align 8, !tbaa !24
  %.not = icmp eq i8 %39, 0
  br i1 %.not, label %60, label %40, !prof !26

40:                                               ; preds = %zend_generator_get_current.exit
  %41 = load i32, ptr %38, align 8
  %42 = and i32 %41, 65280
  %.not20 = icmp eq i32 %42, 0
  br i1 %.not20, label %56, label %43

43:                                               ; preds = %40
  %44 = and i32 %41, 255
  %45 = icmp eq i32 %44, 10
  br i1 %45, label %46, label %.sink.split, !prof !26

46:                                               ; preds = %43
  %47 = load ptr, ptr %37, align 8, !tbaa !24
  %48 = getelementptr inbounds nuw i8, ptr %47, i64 8
  %49 = getelementptr inbounds nuw i8, ptr %47, i64 16
  %50 = load i32, ptr %49, align 8
  %51 = and i32 %50, 65280
  %.not21 = icmp eq i32 %51, 0
  br i1 %.not21, label %56, label %.sink.split

.sink.split:                                      ; preds = %43, %46
  %.sink31 = phi i32 [ %50, %46 ], [ %41, %43 ]
  %.sink.in = phi ptr [ %48, %46 ], [ %37, %43 ]
  %52 = and i32 %.sink31, 65280
  %53 = icmp ne i32 %52, 0
  tail call void @llvm.assume(i1 %53)
  %.sink = load ptr, ptr %.sink.in, align 8, !tbaa !24
  %54 = load i32, ptr %.sink, align 4, !tbaa !65
  %55 = add i32 %54, 1
  store i32 %55, ptr %.sink, align 4, !tbaa !65
  br label %56

56:                                               ; preds = %.sink.split, %40, %46
  %.0 = phi ptr [ %48, %46 ], [ %37, %40 ], [ %.sink.in, %.sink.split ]
  %57 = load ptr, ptr %.0, align 8, !tbaa !24
  %58 = getelementptr inbounds nuw i8, ptr %.0, i64 8
  %59 = load i32, ptr %58, align 8, !tbaa !24
  store ptr %57, ptr %1, align 8, !tbaa !24
  br label %60

60:                                               ; preds = %zend_generator_get_current.exit, %56
  %.sink27 = phi i32 [ %59, %56 ], [ 1, %zend_generator_get_current.exit ]
  %61 = getelementptr inbounds nuw i8, ptr %1, i64 8
  store i32 %.sink27, ptr %61, align 8, !tbaa !24
  ret void
}